; Function Attrs: nounwind uwtable
define void @bn_sqr_normal(ptr noundef initializes((0, 8)) %0, ptr noundef %1, i32 noundef %2, ptr noundef %3) local_unnamed_addr #0 {
  %5 = shl nsw i32 %2, 1
  %6 = sext i32 %5 to i64
  %7 = getelementptr i64, ptr %0, i64 %6
  %8 = getelementptr i8, ptr %7, i64 -8
  store i64 0, ptr %8, align 8, !tbaa !12
  store i64 0, ptr %0, align 8, !tbaa !12
  %9 = icmp sgt i32 %2, 1
  br i1 %9, label %10, label %._crit_edge

10:                                               ; preds = %4
  %11 = getelementptr inbounds nuw i8, ptr %0, i64 8
  %12 = add nsw i32 %2, -1
  %13 = getelementptr inbounds nuw i8, ptr %1, i64 8
  %14 = load i64, ptr %1, align 8, !tbaa !12
  %15 = tail call i64 @bn_mul_words(ptr noundef nonnull %11, ptr noundef nonnull %13, i32 noundef %12, i64 noundef %14) #4
  %16 = zext nneg i32 %12 to i64
  %17 = getelementptr inbounds nuw i64, ptr %11, i64 %16
  store i64 %15, ptr %17, align 8, !tbaa !12
  %.not = icmp eq i32 %2, 2
  br i1 %.not, label %._crit_edge, label %.lr.ph.preheader

.lr.ph.preheader:                                 ; preds = %10
  %18 = getelementptr inbounds nuw i8, ptr %0, i64 24
  %19 = add nsw i32 %2, -2
  %20 = zext nneg i32 %2 to i64
  %21 = add nsw i64 %20, -1
  br label %.lr.ph

.lr.ph:                                           ; preds = %.lr.ph.preheader, %.lr.ph
  %indvars.iv = phi i64 [ %21, %.lr.ph.preheader ], [ %indvars.iv.next, %.lr.ph ]
  %.147 = phi ptr [ %18, %.lr.ph.preheader ], [ %27, %.lr.ph ]
  %.14046 = phi ptr [ %13, %.lr.ph.preheader ], [ %22, %.lr.ph ]
  %.04145 = phi i32 [ %19, %.lr.ph.preheader ], [ %28, %.lr.ph ]
  %indvars.iv.next = add nsw i64 %indvars.iv, -1
  %22 = getelementptr inbounds nuw i8, ptr %.14046, i64 8
  %23 = load i64, ptr %.14046, align 8, !tbaa !12
  %24 = trunc nuw nsw i64 %indvars.iv.next to i32
  %25 = tail call i64 @bn_mul_add_words(ptr noundef nonnull %.147, ptr noundef nonnull %22, i32 noundef %24, i64 noundef %23) #4
  %26 = getelementptr inbounds i64, ptr %.147, i64 %indvars.iv.next
  store i64 %25, ptr %26, align 8, !tbaa !12
  %27 = getelementptr inbounds nuw i8, ptr %.147, i64 16
  %28 = add nsw i32 %.04145, -1
  %29 = icmp samesign ugt i32 %.04145, 1
  br i1 %29, label %.lr.ph, label %._crit_edge, !llvm.loop !14

._crit_edge:                                      ; preds = %.lr.ph, %4, %10
  %30 = tail call i64 @bn_add_words(ptr noundef nonnull %0, ptr noundef nonnull %0, ptr noundef nonnull %0, i32 noundef %5) #4
  tail call void @bn_sqr_words(ptr noundef %3, ptr noundef %1, i32 noundef %2) #4
  %31 = tail call i64 @bn_add_words(ptr noundef nonnull %0, ptr noundef nonnull %0, ptr noundef %3, i32 noundef %5) #4
  ret void
}